; Function Attrs: mustprogress nofree norecurse nosync nounwind willreturn memory(argmem: read) uwtable
define noundef zeroext i1 @_ZNK9grpc_core16CommonTlsContext28CertificateValidationContext5EmptyEv(ptr nocapture noundef nonnull readonly align 8 dereferenceable(88) %this) local_unnamed_addr #5 align 2 {
entry:
  %match_subject_alt_names = getelementptr inbounds i8, ptr %this, i64 64
  %0 = load ptr, ptr %match_subject_alt_names, align 8
  %_M_finish.i.i = getelementptr inbounds i8, ptr %this, i64 72
  %1 = load ptr, ptr %_M_finish.i.i, align 8
  %cmp.i.i = icmp eq ptr %0, %1
  ret i1 %cmp.i.i
}